	ifndef	??version
?debug	macro
	endm
publicdll macro	name
	public	name
	endm
$comm	macro	name,dist,size,count
	comm	dist name:BYTE:count*size
	endm
	else
$comm	macro	name,dist,size,count
	comm	dist name[size]:BYTE:count
	endm
	endif
	?debug	V 300h
	?debug	S "ivtentry.cpp"
	?debug	C E9278CA5500C697674656E7472792E637070
	?debug	C E9A381A5500F2E2E5C685C495654456E7472792E68
	?debug	C E94029CA1817633A5C626333315C696E636C7564655C737464696F+
	?debug	C 2E68
	?debug	C E94029CA1817633A5C626333315C696E636C7564655C5F64656673+
	?debug	C 2E68
	?debug	C E94029CA1818633A5C626333315C696E636C7564655C5F6E66696C+
	?debug	C 652E68
	?debug	C E94029CA1817633A5C626333315C696E636C7564655C5F6E756C6C+
	?debug	C 2E68
	?debug	C E9C19894500C2E2E5C685C74696D65722E68
	?debug	C E94029CA1815633A5C626333315C696E636C7564655C646F732E68
	?debug	C E94A72A2500D2E2E5C685C6D6163726F732E68
	?debug	C E9D58E93500C2E2E5C685C6B657265762E68
	?debug	C E98C6683500C2E2E5C685C6576656E742E68
	?debug	C E94A72A2500D2E2E5C685C6D6163726F732E68
	?debug	C E9A381A5500F2E2E5C685C495654456E7472792E68
	?debug	C E9D99B7D500F2E2E5C685C53656D6170686F722E68
	?debug	C E970B1A2500A2E2E5C685C5043422E68
	?debug	C E97B70A2500D2E2E5C685C7468726561642E68
	?debug	C E9E27AA5500C2E2E5C685C6C697374612E68
	?debug	C E94029CA1817633A5C626333315C696E636C7564655C737464696F+
	?debug	C 2E68
	?debug	C E9C19894500C2E2E5C685C74696D65722E68
IVTENTRY_TEXT	segment byte public 'CODE'
IVTENTRY_TEXT	ends
	assume	cs:IVTENTRY_TEXT,ds:IVTENTRY_DATA
IVTENTRY_DATA	segment word public 'FAR_DATA'
d@	label	byte
d@w	label	word
b@	label	byte
b@w	label	word
IVTENTRY_DATA	ends
IVTENTRY5_DATA	segment para public 'FAR_DATA'
@IVTEntry@0IVTEntryList	label	dword
	db	0
	db	0
	db	0
	db	0
	db	1020 dup (0)
IVTENTRY5_DATA	ends
IVTENTRY_TEXT	segment byte public 'CODE'
	?debug	C E8010C697674656E7472792E637070278CA550
   ;	
   ;	IVTEntry::IVTEntry(IVTNo br,pInterrupt routine)
   ;	
	?debug	L 8
	assume	cs:IVTENTRY_TEXT
@IVTEntry@0$bctr$qucnqve$v	proc	far
	?debug	B
	push	bp
	mov	bp,sp
	push	ds
	mov	ax,IVTENTRY_DATA
	mov	ds,ax
	?debug	C F81A40495654456E747279403024626374722471+
	?debug	C 75636E7176652476
	?debug	C E318000400161900
	?debug	C E31B00000023010701
	?debug	C E31A000400161B00
	?debug	C E607726F7574696E651A0A0C0000026272080A0A+
	?debug	C 000004746869731802060000
	?debug	B
   ;	
   ;	{
   ;	
	?debug	L 9
	mov	ax,word ptr [bp+6]
	or	ax,word ptr [bp+8]
	jne	short @1@86
	mov	ax,13
	push	ax
	call	far ptr @$bnew$qui
	pop	cx
	mov	word ptr [bp+8],dx
	mov	word ptr [bp+6],ax
	or	ax,dx
	je	short @1@198
@1@86:
   ;	
   ;	    hardlock;
   ;	
	?debug	L 10
 	pushf	
 	cli	
   ;	
   ;	    myEvent=0;
   ;	
	?debug	L 11
	les	bx,dword ptr [bp+6]
	mov	word ptr es:[bx+11],0
	mov	word ptr es:[bx+9],0
   ;	
   ;	    old=0;
   ;	
	?debug	L 12
	les	bx,dword ptr [bp+6]
	mov	word ptr es:[bx+7],0
	mov	word ptr es:[bx+5],0
   ;	
   ;	    this->routine=routine;
   ;	
	?debug	L 13
	les	bx,dword ptr [bp+6]
	mov	ax,word ptr [bp+14]
	mov	dx,word ptr [bp+12]
	mov	word ptr es:[bx+3],ax
	mov	word ptr es:[bx+1],dx
   ;	
   ;	    num=br;
   ;	
	?debug	L 14
	les	bx,dword ptr [bp+6]
	mov	al,byte ptr [bp+10]
	mov	byte ptr es:[bx],al
   ;	
   ;	    IVTEntryList[br]=this;
   ;	
	?debug	L 15
	mov	al,byte ptr [bp+10]
	mov	ah,0
	mov	cl,2
	shl	ax,cl
	mov	dx,seg @IVTEntry@0IVTEntryList
	mov	bx,word ptr [bp+8]
	mov	cx,word ptr [bp+6]
	mov	es,dx
	xchg	bx,ax
	mov	word ptr es:@IVTEntry@0IVTEntryList[bx+2],ax
	mov	word ptr es:@IVTEntry@0IVTEntryList[bx],cx
   ;	
   ;	    hardunlock;
   ;	
	?debug	L 16
 	popf	
@1@198:
   ;	
   ;	}
   ;	
	?debug	L 17
	mov	dx,word ptr [bp+8]
	mov	ax,word ptr [bp+6]
	jmp	short @1@226
@1@226:
	pop	ds
	pop	bp
	ret	
	?debug	C E604746869731802060000026272080A0A000007+
	?debug	C 726F7574696E651A0A0C0000
	?debug	E
	?debug	E
@IVTEntry@0$bctr$qucnqve$v	endp
   ;	
   ;	void IVTEntry::setEvent(IVTNo num, KernelEv* ev)
   ;	
	?debug	L 19
	assume	cs:IVTENTRY_TEXT
@IVTEntry@0setEvent$qucn8KernelEv	proc	far
	?debug	B
	push	bp
	mov	bp,sp
	sub	sp,4
	push	ds
	mov	ax,IVTENTRY_DATA
	mov	ds,ax
	?debug	C F82140495654456E74727940307365744576656E+
	?debug	C 74247175636E384B65726E656C4576
	?debug	C E31C000400161D00
	?debug	C E60265761C0A080000036E756D080A060000
	?debug	B
   ;	
   ;	{
   ;	    hardlock;
   ;	
	?debug	L 21
 	pushf	
 	cli	
   ;	
   ;	    IVTEntry* ivtentry = IVTEntryList[num];
   ;	
	?debug	L 22
	mov	al,byte ptr [bp+6]
	mov	ah,0
	mov	cl,2
	shl	ax,cl
	mov	dx,seg @IVTEntry@0IVTEntryList
	mov	bx,ax
	mov	es,dx
	mov	ax,word ptr es:@IVTEntry@0IVTEntryList[bx+2]
	mov	dx,word ptr es:@IVTEntry@0IVTEntryList[bx]
	mov	word ptr [bp-2],ax
	mov	word ptr [bp-4],dx
   ;	
   ;	    ivtentry->myEvent=ev;
   ;	
	?debug	L 23
	les	bx,dword ptr [bp-4]
	mov	ax,word ptr [bp+10]
	mov	dx,word ptr [bp+8]
	mov	word ptr es:[bx+11],ax
	mov	word ptr es:[bx+9],dx
   ;	
   ;	    ivtentry->old=getvect(num);
   ;	
	?debug	L 24
	mov	al,byte ptr [bp+6]
	mov	ah,0
	push	ax
	call	far ptr _getvect
	pop	cx
	les	bx,dword ptr [bp-4]
	mov	word ptr es:[bx+7],dx
	mov	word ptr es:[bx+5],ax
   ;	
   ;	    setvect(num,ivtentry->routine);
   ;	
	?debug	L 25
	les	bx,dword ptr [bp-4]
	push	word ptr es:[bx+3]
	push	word ptr es:[bx+1]
	mov	al,byte ptr [bp+6]
	mov	ah,0
	push	ax
	call	far ptr _setvect
	add	sp,6
   ;	
   ;	    hardunlock;
   ;	
	?debug	L 26
 	popf	
   ;	
   ;	}
   ;	
	?debug	L 27
	pop	ds
	mov	sp,bp
	pop	bp
	ret	
	?debug	C E608697674656E7472791802FCFF00036E756D08+
	?debug	C 0A0600000265761C0A080000
	?debug	E
	?debug	E
@IVTEntry@0setEvent$qucn8KernelEv	endp
   ;	
   ;	void IVTEntry::resetEvent(IVTNo num)
   ;	
	?debug	L 29
	assume	cs:IVTENTRY_TEXT
@IVTEntry@0resetEvent$quc	proc	far
	?debug	B
	push	bp
	mov	bp,sp
	sub	sp,4
	push	ds
	mov	ax,IVTENTRY_DATA
	mov	ds,ax
	?debug	C F81940495654456E747279403072657365744576+
	?debug	C 656E7424717563
	?debug	C E6036E756D080A060000
	?debug	B
   ;	
   ;	{
   ;	    hardlock;
   ;	
	?debug	L 31
 	pushf	
 	cli	
   ;	
   ;	    IVTEntry* ivtentry = IVTEntryList[num];
   ;	
	?debug	L 32
	mov	al,byte ptr [bp+6]
	mov	ah,0
	mov	cl,2
	shl	ax,cl
	mov	dx,seg @IVTEntry@0IVTEntryList
	mov	bx,ax
	mov	es,dx
	mov	ax,word ptr es:@IVTEntry@0IVTEntryList[bx+2]
	mov	dx,word ptr es:@IVTEntry@0IVTEntryList[bx]
	mov	word ptr [bp-2],ax
	mov	word ptr [bp-4],dx
   ;	
   ;	    setvect(num,ivtentry->old);
   ;	
	?debug	L 33
	les	bx,dword ptr [bp-4]
	push	word ptr es:[bx+7]
	push	word ptr es:[bx+5]
	mov	al,byte ptr [bp+6]
	mov	ah,0
	push	ax
	call	far ptr _setvect
	add	sp,6
   ;	
   ;	    if (ivtentry->old!=0) ivtentry->old();
   ;	
	?debug	L 34
	les	bx,dword ptr [bp-4]
	mov	ax,word ptr es:[bx+5]
	or	ax,word ptr es:[bx+7]
	je	short @3@142
	les	bx,dword ptr [bp-4]
	pushf	
	call	dword ptr es:[bx+5]
@3@142:
   ;	
   ;	    ivtentry->myEvent=0;
   ;	
	?debug	L 35
	les	bx,dword ptr [bp-4]
	mov	word ptr es:[bx+11],0
	mov	word ptr es:[bx+9],0
   ;	
   ;	    IVTEntryList[num]=0;
   ;	
	?debug	L 36
	mov	al,byte ptr [bp+6]
	mov	ah,0
	mov	cl,2
	shl	ax,cl
	mov	dx,seg @IVTEntry@0IVTEntryList
	mov	bx,ax
	mov	es,dx
	mov	word ptr es:@IVTEntry@0IVTEntryList[bx+2],0
	mov	word ptr es:@IVTEntry@0IVTEntryList[bx],0
   ;	
   ;	    hardunlock;
   ;	
	?debug	L 37
 	popf	
   ;	
   ;	}
   ;	
	?debug	L 38
	pop	ds
	mov	sp,bp
	pop	bp
	ret	
	?debug	C E608697674656E7472791802FCFF00036E756D08+
	?debug	C 0A060000
	?debug	E
	?debug	E
@IVTEntry@0resetEvent$quc	endp
   ;	
   ;	void IVTEntry::signal()
   ;	
	?debug	L 40
	assume	cs:IVTENTRY_TEXT
@IVTEntry@0signal$qv	proc	far
	?debug	B
	push	bp
	mov	bp,sp
	push	ds
	mov	ax,IVTENTRY_DATA
	mov	ds,ax
	?debug	C F81440495654456E74727940307369676E616C24+
	?debug	C 7176
	?debug	C E604746869731802060000
	?debug	B
   ;	
   ;	{
   ;	    hardlock;
   ;	
	?debug	L 42
 	pushf	
 	cli	
   ;	
   ;	    myEvent->signal();
   ;	
	?debug	L 43
	les	bx,dword ptr [bp+6]
	push	word ptr es:[bx+11]
	push	word ptr es:[bx+9]
	call	far ptr @KernelEv@0signal$qv
	pop	cx
	pop	cx
   ;	
   ;	    hardunlock;
   ;	
	?debug	L 44
 	popf	
   ;	
   ;	}
   ;	
	?debug	L 45
	pop	ds
	pop	bp
	ret	
	?debug	C E604746869731802060000
	?debug	E
	?debug	E
@IVTEntry@0signal$qv	endp
   ;	
   ;	IVTEntry::~IVTEntry()
   ;	
	?debug	L 47
	assume	cs:IVTENTRY_TEXT
@IVTEntry@0$bdtr$qv	proc	far
	?debug	B
	push	bp
	mov	bp,sp
	push	si
	push	ds
	mov	ax,IVTENTRY_DATA
	mov	ds,ax
	?debug	C F81340495654456E747279403024626474722471+
	?debug	C 76
	?debug	C E60664656C657465040A0A000004746869731802+
	?debug	C 060000
	mov	si,word ptr [bp+10]
	?debug	B
   ;	
   ;	{
   ;	
	?debug	L 48
	mov	ax,word ptr [bp+6]
	or	ax,word ptr [bp+8]
	je	short @5@226
   ;	
   ;	    hardlock;
   ;	
	?debug	L 49
 	pushf	
 	cli	
   ;	
   ;	    resetEvent(num);
   ;	
	?debug	L 50
	les	bx,dword ptr [bp+6]
	mov	al,byte ptr es:[bx]
	push	ax
	push	cs
	call	near ptr @IVTEntry@0resetEvent$quc
	pop	cx
   ;	
   ;	    hardunlock;
   ;	
	?debug	L 51
 	popf	
	test	si,1
	je	short @5@226
	push	word ptr [bp+8]
	push	word ptr [bp+6]
	call	far ptr @$bdele$qnv
	pop	cx
	pop	cx
@5@226:
   ;	
   ;	}
   ;	
	?debug	L 52
	pop	ds
	pop	si
	pop	bp
	ret	
	?debug	C E6047468697318020600000664656C657465040C+
	?debug	C 0600
	?debug	E
	?debug	E
@IVTEntry@0$bdtr$qv	endp
	?debug	C E9
	?debug	C FA00000000
IVTENTRY_TEXT	ends
IVTENTRY_DATA	segment word public 'FAR_DATA'
s@	label	byte
IVTENTRY_DATA	ends
IVTENTRY_TEXT	segment byte public 'CODE'
IVTENTRY_TEXT	ends
	?debug	C E31908495654456E7472790D002E01
	?debug	C ED00010000010E00
	?debug	C E31E0000041A18
	?debug	C E31F0000002D18040119001A40495654456E7472+
	?debug	C 7940302462637472247175636E7176652476
	?debug	C E3210000002D01040119001340495654456E7472+
	?debug	C 7940302462647472247176
	?debug	C E3230000002D01040119002140495654456E7472+
	?debug	C 7940307365744576656E74247175636E384B6572+
	?debug	C 6E656C4576
	?debug	C E3250000002D01040119001940495654456E7472+
	?debug	C 79403072657365744576656E7424717563
	?debug	C E3270000002D01040119001440495654456E7472+
	?debug	C 7940307369676E616C247176
	?debug	C E31D084B65726E656C45760B002E02
	?debug	C ED000200000C0E00
	?debug	C E32A03504342A8002E03
	?debug	C ED00030000140E00
	?debug	C E32B000400162A00
	?debug	C E32C000400160A00
	?debug	C E32D06537461746573020022000080FF7F3D
	?debug	C E3300654687265616408002E04
	?debug	C ED00040000410E00
	?debug	C E3310000002D0104013000114054687265616440+
	?debug	C 307374617274247176
	?debug	C E3330000002D01040130001A4054687265616440+
	?debug	C 3077616974546F436F6D706C657465247176
	?debug	C E3350000002D0104013000114054687265616440+
	?debug	C 302462647472247176
	?debug	C E3370000002D0404013000114054687265616440+
	?debug	C 306765744964247176
	?debug	C E3390000002D0404013000184054687265616440+
	?debug	C 3067657452756E6E696E674964247176
	?debug	C E33B0000002D2F04013000194054687265616440+
	?debug	C 3067657454687265616442794964247169
	?debug	C E33D0000002D0104013000134054687265616440+
	?debug	C 307369676E616C24717569
	?debug	C E33F0000002D0104013000214054687265616440+
	?debug	C 30726567697374657248616E646C657224717569+
	?debug	C 6E71762476
	?debug	C E3410000002D0104013000224054687265616440+
	?debug	C 30756E7265676973746572416C6C48616E646C65+
	?debug	C 727324717569
	?debug	C E3430000002D0104013000184054687265616440+
	?debug	C 3073776170247175696E717624767432
	?debug	C E3450000002D0104013000184054687265616440+
	?debug	C 30626C6F636B5369676E616C24717569
	?debug	C E3470000002D0104013000204054687265616440+
	?debug	C 30626C6F636B5369676E616C476C6F62616C6C79+
	?debug	C 24717569
	?debug	C E3490000002D01040130001A4054687265616440+
	?debug	C 30756E626C6F636B5369676E616C24717569
	?debug	C E34B0000002D0104013000224054687265616440+
	?debug	C 30756E626C6F636B5369676E616C476C6F62616C+
	?debug	C 6C7924717569
	?debug	C E34D0000002D2F04013000144054687265616440+
	?debug	C 3024626374722471756C7569
	?debug	C E34F0000002D0104093002
	?debug	C E32F000400163000
	?debug	C E3520E40254C69737424746E717624762506002E+
	?debug	C 05
	?debug	C ED00050000540E00
	?debug	C E35400000023010400
	?debug	C E353000400165400
	?debug	C E3551340254C69737424746E7176247625404E6F+
	?debug	C 646508002E06
	?debug	C ED00060000620F00
	?debug	C E356000400165500
	?debug	C E3570000002D5604095500
	?debug	C E3590000002D0104095200
	?debug	C E35B0000002D0104095200
	?debug	C E35D0000002D0104095200
	?debug	C E35F0000002D5304095200
	?debug	C E3610000002D0104095200
	?debug	C E3630000002D0104095200
	?debug	C E3650000002D0104095200
	?debug	C E3670000002D5604095200
	?debug	C E369000400165200
	?debug	C E36A0000002D6904095200
	?debug	C E3510060001A52
	?debug	C E36C0B40254C697374247475692506002E07
	?debug	C ED00070000660E00
	?debug	C E36D1040254C6973742474756925404E6F646506+
	?debug	C 002E08
	?debug	C ED00080000740F00
	?debug	C E36E000400166D00
	?debug	C E36F0000002D6E04096D00
	?debug	C E3710000002D0104096C00
	?debug	C E3730000002D0104096C00
	?debug	C E3750000002D0104096C00
	?debug	C E3770000002D0A04096C00
	?debug	C E3790000002D0104096C00
	?debug	C E37B0000002D0104096C00
	?debug	C E37D0000002D0104096C00
	?debug	C E37F0000002D6E04096C00
	?debug	C E38081000400166C00
	?debug	C E380820000002D808104096C00
	?debug	C E380840020001A04
	?debug	C E380850020001A04
	?debug	C E380860E40254C69737424746E33504342250600+
	?debug	C 2E09
	?debug	C ED00090000780E00
	?debug	C E380871340254C69737424746E3350434225404E+
	?debug	C 6F646508002E0A
	?debug	C ED000A000080860F00
	?debug	C E3808800040016808700
	?debug	C E380890000002D80880409808700
	?debug	C E3808B0000002D010409808600
	?debug	C E3808D0000002D010409808600
	?debug	C E3808F0000002D010409808600
	?debug	C E380910000002D290409808600
	?debug	C E380930000002D010409808600
	?debug	C E380950000002D010409808600
	?debug	C E380970000002D010409808600
	?debug	C E380990000002D80880409808600
	?debug	C E3809B00040016808600
	?debug	C E3809C0000002D809B0409808600
	?debug	C E3809E0000002D2904012A001140504342403024+
	?debug	C 626374722471756C7569
	?debug	C E380A00000002D2904012A001940504342403024+
	?debug	C 6263747224716E36546872656164756C7569
	?debug	C E380A20000002D0104012A001740504342403077+
	?debug	C 72617070657224716E36546872656164
	?debug	C E380A40000002D0104012A001840504342403061+
	?debug	C 6464546F416C6C50434224716E33504342
	?debug	C E380A60000002D0104012A001D40504342403064+
	?debug	C 656C65746546726F6D416C6C50434224716E3350+
	?debug	C 4342
	?debug	C E380A80000002D0104012A001D40504342403061+
	?debug	C 6464546F426C6F636B65644C69737424716E3350+
	?debug	C 4342
	?debug	C E380AA0000002D0104012A001440504342403075+
	?debug	C 6E626C6F636B416C6C24777176
	?debug	C E380AC0000002D0104012A000E40504342403024+
	?debug	C 62647472247176
	?debug	C E380AE0000002D0104012A001140504342403073+
	?debug	C 69676E616C2477717569
	?debug	C E380B00000002D0104012A001E40504342403072+
	?debug	C 6567697374657248616E646C6572247175696E71+
	?debug	C 762476
	?debug	C E380B20000002D0104012A001F40504342403075+
	?debug	C 6E7265676973746572416C6C48616E646C657273+
	?debug	C 24717569
	?debug	C E380B40000002D0104012A001540504342403073+
	?debug	C 776170247175696E717624767432
	?debug	C E380B60000002D0104012A001540504342403062+
	?debug	C 6C6F636B5369676E616C24717569
	?debug	C E380B80000002D0104012A001D40504342403062+
	?debug	C 6C6F636B5369676E616C476C6F62616C6C792471+
	?debug	C 7569
	?debug	C E380BA0000002D0104012A001740504342403075+
	?debug	C 6E626C6F636B5369676E616C24717569
	?debug	C E380BC0000002D0104012A001F40504342403075+
	?debug	C 6E626C6F636B5369676E616C476C6F62616C6C79+
	?debug	C 24717569
	?debug	C E380BE0000002D0104012A001340504342403064+
	?debug	C 6F5369676E616C7324777176
	?debug	C E329000400162A00
	?debug	C E380C1054576656E7404002E0B
	?debug	C ED000B0000808A0E00
	?debug	C E380C20000002D80C0040180C10011404576656E+
	?debug	C 744030246263747224717563
	?debug	C E380C40000002D01040180C10010404576656E74+
	?debug	C 40302462647472247176
	?debug	C E380C60000002D01040180C1000F404576656E74+
	?debug	C 403077616974247176
	?debug	C E380C80000002D01040180C10011404576656E74+
	?debug	C 403073696E67616C247176
	?debug	C E380C00004001680C100
	?debug	C E380CA0000002D1C04011D001B404B65726E656C+
	?debug	C 45764030246263747224716E354576656E747563
	?debug	C E380CC0000002D0104011D0012404B65726E656C+
	?debug	C 4576403077616974247176
	?debug	C E380CE0000002D0104011D0014404B65726E656C+
	?debug	C 457640307369676E616C247176
	extrn	@KernelEv@0signal$qv:far
	extrn	@PCB@0pomlist:word
	extrn	@PCB@0allPCB:word
	extrn	_setvect:far
	extrn	_getvect:far
_pokeb	equ	pokeb
_poke	equ	poke
_peekb	equ	peekb
_peek	equ	peek
	public	@IVTEntry@0signal$qv
	public	@IVTEntry@0resetEvent$quc
	public	@IVTEntry@0setEvent$qucn8KernelEv
	public	@IVTEntry@0$bdtr$qv
	public	@IVTEntry@0$bctr$qucnqve$v
	public	@IVTEntry@0IVTEntryList
	extrn	@$bdele$qnv:far
	extrn	@$bnew$qui:far
_s@	equ	s@
	?debug	C EA050D
	?debug	C E380D00953656D6170686F726508002E0C
	?debug	C ED000C000080900E00
	?debug	C E380D10004001680D000
	?debug	C E380D20000002D80D1040180D000144053656D61+
	?debug	C 70686F726540302462637472247169
	?debug	C E380D40000002D01040180D000144053656D6170+
	?debug	C 686F726540302462647472247176
	?debug	C E380D60000002D04040180D002144053656D6170+
	?debug	C 686F726540307761697424717569
	?debug	C E380D80000002D04040180D004154053656D6170+
	?debug	C 686F726540307369676E616C247169
	?debug	C E380DA0000002D04040180D000134053656D6170+
	?debug	C 686F7265403076616C24787176
	?debug	C E380DC000400160100
	?debug	C E380DD00000023010400
	?debug	C EB085F7365747665637480DD00
	?debug	C E380E000000023010701
	?debug	C E380DF0004001680E000
	?debug	C E380DE0000002380DF0400
	?debug	C EB085F6765747665637480DE00
	?debug	C E380E100000023010400
	?debug	C E380E200000023010400
	?debug	C E380E300000023020400
	?debug	C E380E400000023040400
	?debug	C E380E50666696E645F742B001E8098
	?debug	C E380E60015001A02
	?debug	C E380E7000D001A02
	?debug	C E380E8056666626C6B2B001E809F
	?debug	C E380E90015001A02
	?debug	C E380EA000D001A02
	?debug	C E380EB075245475041434B14001E80A6
	?debug	C E380EC05535245475308001E80B1
	?debug	C E380ED045245475310001F80B6
	?debug	C E380EE08574F52445245475310001E80B9
	?debug	C E380EF08425954455245475308001E80C2
	?debug	C E380F009646F73646174655F7405001E80CB
	?debug	C E380F1046461746504001E80D0
	?debug	C E380F209646F7374696D655F7404001E80D4
	?debug	C E380F30474696D6504001E80D9
	?debug	C E380F40664657668647212001E80DE
	?debug	C E380F50008001A02
	?debug	C E380F607666174696E666F06001E80E4
	?debug	C E380F70A6469736B667265655F7408001E80E9
	?debug	C E380F805646672656508001E80EE
	?debug	C E380F908444F534552524F5205001E80F3
	?debug	C E380FA07434F554E54525922001E80F8
	?debug	C E380FB0005001A02
	?debug	C E380FC0002001A02
	?debug	C E380FD0002001A02
	?debug	C E380FE0002001A02
	?debug	C E380FF0002001A02
	?debug	C E381000002001A02
	?debug	C E38101000A001A02
	?debug	C E3810204786663622C001E8105
	?debug	C E381030005001A02
	?debug	C E381040366636225001E810A
	?debug	C E381050008001A02
	?debug	C E381060003001A02
	?debug	C E38107000A001A02
	?debug	C E381080554696D657201002E0D
	?debug	C ED000D000081150E00
	?debug	C E381090000002D0104018108000F4054696D6572+
	?debug	C 4030696E6974247176
	?debug	C E3810B0000002D010401810800124054696D6572+
	?debug	C 4030726573746F7265247176
	?debug	C E3810D00000023010400
	?debug	C EB0B40246264656C6524716E76810D00
	?debug	C E3810F000400160100
	?debug	C E3810E00000023810F0400
	?debug	C EB0A4024626E657724717569810E00
	?debug	C E6085369676E616C49640A06000D5369676E616C+
	?debug	C 48616E646C657253060002494404060009537461+
	?debug	C 636B53697A650C06000454696D650A06000A7049+
	?debug	C 6E746572727570741A0600054956544E6F080600+
	?debug	C 0666706F735F740606000673697A655F740A0600+
	?debug	C 0A3C74656D706C6174653E808607000A3C74656D+
	?debug	C 706C6174653E6C07000A3C74656D706C6174653E+
	?debug	C 520700065374617465732D070006546872656164+
	?debug	C 300700035043422A07000953656D6170686F7265+
	?debug	C 80D00700094B65726E656C53656D010700054576+
	?debug	C 656E7480C107000666696E645F7480E507000566+
	?debug	C 66626C6B80E80700075245475041434B80EB0700+
	?debug	C 05535245475380EC0700045245475380ED070008+
	?debug	C 425954455245475380EF070008574F5244524547+
	?debug	C 5380EE070009646F73646174655F7480F0070004+
	?debug	C 6461746580F1070009646F7374696D655F7480F2+
	?debug	C 07000474696D6580F307000664657668647280F4+
	?debug	C 070007666174696E666F80F607000A6469736B66+
	?debug	C 7265655F7480F7070005646672656580F8070008+
	?debug	C 444F534552524F5280F9070007434F554E545259+
	?debug	C 80FA070004786663628102070003666362810407+
	?debug	C 0008495654456E747279190700084B65726E656C+
	?debug	C 45761D07000554696D657281080700
	?debug	F pokeb 225 24 0
	?debug	F poke 226 24 0
	?debug	F peekb 227 24 0
	?debug	F peek 228 24 0
	?debug	C E200036E756D080007726F7574696E651A00036F+
	?debug	C 6C641A00076D794576656E741C60174049565445+
	?debug	C 6E7472794030495654456E7472794C6973741E4A+
	?debug	C 1A40495654456E74727940302462637472247175+
	?debug	C 636E71766524761F491340495654456E74727940+
	?debug	C 30246264747224717621482140495654456E7472+
	?debug	C 7940307365744576656E74247175636E384B6572+
	?debug	C 6E656C457623481940495654456E747279403072+
	?debug	C 657365744576656E742471756325481440495654+
	?debug	C 456E74727940307369676E616C24717627C00D00+
	?debug	C 0000
	?debug	C E200056976744E6F080006686973504342290003+
	?debug	C 76616C0400076D794576656E7480C04A1B404B65+
	?debug	C 726E656C45764030246263747224716E35457665+
	?debug	C 6E74756380CA4812404B65726E656C4576403077+
	?debug	C 61697424717680CC4814404B65726E656C457640+
	?debug	C 307369676E616C24717680CEC00B000000
	?debug	C E2600D40504342403072756E6E696E672B000573+
	?debug	C 7461636B2C000273730A000273700A000262700A+
	?debug	C 00056B76616E740A00096C6F636B436F756E7404+
	?debug	C 0002696404000B74696D65556E626C6F636B0400+
	?debug	C 0573746174652D00086D795468726561642F600B+
	?debug	C 4050434240304D4158494404000E7369676E616C+
	?debug	C 48616E646C65727351000D616374697665536967+
	?debug	C 6E616C736C000A7369676E616C4C6F636B808460+
	?debug	C 16405043424030676C6F62616C5369676E616C4C+
	?debug	C 6F636B80850006706172656E7429600C40504342+
	?debug	C 4030616C6C50434280860007626C6F636B656480+
	?debug	C 86600D405043424030696E697469616C2B600E40+
	?debug	C 504342403064756D6D795043422B601440504342+
	?debug	C 403072756E6E696E675468726561647304600D40+
	?debug	C 5043424030706F6D6C6973746C4A114050434240+
	?debug	C 3024626374722471756C7569809E4A1940504342+
	?debug	C 4030246263747224716E36546872656164756C75+
	?debug	C 6980A04817405043424030777261707065722471+
	?debug	C 6E3654687265616480A248184050434240306164+
	?debug	C 64546F416C6C50434224716E3350434280A4481D+
	?debug	C 40504342403064656C65746546726F6D416C6C50+
	?debug	C 434224716E3350434280A6481D40504342403061+
	?debug	C 6464546F426C6F636B65644C69737424716E3350+
	?debug	C 434280A84814405043424030756E626C6F636B41+
	?debug	C 6C6C2477717680AA490E40504342403024626474+
	?debug	C 7224717680AC48114050434240307369676E616C+
	?debug	C 247771756980AE481E4050434240307265676973+
	?debug	C 74657248616E646C6572247175696E7176247680+
	?debug	C B0481F405043424030756E726567697374657241+
	?debug	C 6C6C48616E646C6572732471756980B248154050+
	?debug	C 4342403073776170247175696E71762476743280+
	?debug	C B44815405043424030626C6F636B5369676E616C+
	?debug	C 2471756980B6481D405043424030626C6F636B53+
	?debug	C 69676E616C476C6F62616C6C792471756980B848+
	?debug	C 17405043424030756E626C6F636B5369676E616C+
	?debug	C 2471756980BA481F405043424030756E626C6F63+
	?debug	C 6B5369676E616C476C6F62616C6C792471756980+
	?debug	C BC4813405043424030646F5369676E616C732477+
	?debug	C 717680BEC0A8000000
	?debug	C E40004444F4E4500000005524541445901000004+
	?debug	C 4D41444502008007424C4F434B45440300
	?debug	C E248114054687265616440307374617274247176+
	?debug	C 31481A40546872656164403077616974546F436F+
	?debug	C 6D706C657465247176334D114054687265616440+
	?debug	C 3024626474722471763548114054687265616440+
	?debug	C 3067657449642471763748184054687265616440+
	?debug	C 3067657452756E6E696E67496424717639481940+
	?debug	C 5468726561644030676574546872656164427949+
	?debug	C 642471693B48134054687265616440307369676E+
	?debug	C 616C247175693D48214054687265616440307265+
	?debug	C 67697374657248616E646C6572247175696E7176+
	?debug	C 24763F4822405468726561644030756E72656769+
	?debug	C 73746572416C6C48616E646C6572732471756941+
	?debug	C 481840546872656164403073776170247175696E+
	?debug	C 717624767432434818405468726561644030626C+
	?debug	C 6F636B5369676E616C2471756945482040546872+
	?debug	C 6561644030626C6F636B5369676E616C476C6F62+
	?debug	C 616C6C792471756947481A405468726561644030+
	?debug	C 756E626C6F636B5369676E616C24717569494822+
	?debug	C 405468726561644030756E626C6F636B5369676E+
	?debug	C 616C476C6F62616C6C79247175694B4A14405468+
	?debug	C 72656164403024626374722471756C75694D4C0F+
	?debug	C 40546872656164403072756E2471764F40040000+
	?debug	C 0000056D7950434229C008000000
	?debug	C E27001545370044E6F64655500066C656E677468+
	?debug	C 0400046865616456481840254C69737424746E71+
	?debug	C 762476254065726173652477717659481B40254C+
	?debug	C 69737424746E717624762540707573682477716E+
	?debug	C 717624765B481F40254C69737424746E71762476+
	?debug	C 2540707573684261636B2477716E717624765D48+
	?debug	C 1640254C69737424746E717624762540706F7024+
	?debug	C 7771765F491740254C69737424746E7176247625+
	?debug	C 40246264747224717661482040254C6973742474+
	?debug	C 6E71762476254064656C65746576616C2477716E+
	?debug	C 7176247663482D40254C69737424746E71762476+
	?debug	C 254064656C4E6F646524716E3138254C69737424+
	?debug	C 746E7176247625404E6F646565481940254C6973+
	?debug	C 7424746E71762476254067657448656164247176+
	?debug	C 674A1740254C69737424746E7176247625402462+
	?debug	C 6374722471766AC006000000
	?debug	C E2000376616C5300046E657874564A2140254C69+
	?debug	C 737424746E7176247625404E6F64654030246263+
	?debug	C 747224716E7176247657C008000000
	?debug	C E27001540A70044E6F64656D00066C656E677468+
	?debug	C 040004686561646E481540254C69737424747569+
	?debug	C 254065726173652477717671481540254C697374+
	?debug	C 2474756925407075736824777175697348194025+
	?debug	C 4C697374247475692540707573684261636B2477+
	?debug	C 71756975481340254C697374247475692540706F+
	?debug	C 702477717677491440254C697374247475692540+
	?debug	C 246264747224717679481A40254C697374247475+
	?debug	C 69254064656C65746576616C24777175697B4827+
	?debug	C 40254C69737424747569254064656C4E6F646524+
	?debug	C 716E3135254C6973742474756925404E6F64657D+
	?debug	C 481640254C697374247475692540676574486561+
	?debug	C 642471767F4A1440254C69737424747569254024+
	?debug	C 626374722471768082C006000000
	?debug	C E2000376616C0A00046E6578746E4A1B40254C69+
	?debug	C 73742474756925404E6F64654030246263747224+
	?debug	C 7175696FC006000000
	?debug	C E27001542970044E6F6465808700066C656E6774+
	?debug	C 68040004686561648088481840254C6973742474+
	?debug	C 6E335043422540657261736524777176808B481B+
	?debug	C 40254C69737424746E3350434225407075736824+
	?debug	C 77716E33504342808D481F40254C69737424746E+
	?debug	C 335043422540707573684261636B2477716E3350+
	?debug	C 4342808F481640254C69737424746E3350434225+
	?debug	C 40706F70247771768091491740254C6973742474+
	?debug	C 6E33504342254024626474722471768093482040+
	?debug	C 254C69737424746E33504342254064656C657465+
	?debug	C 76616C2477716E335043428095482D40254C6973+
	?debug	C 7424746E33504342254064656C4E6F646524716E+
	?debug	C 3138254C69737424746E3350434225404E6F6465+
	?debug	C 8097481940254C69737424746E33504342254067+
	?debug	C 65744865616424717680994A1740254C69737424+
	?debug	C 746E3350434225402462637472247176809CC006+
	?debug	C 000000
	?debug	C E2000376616C2900046E65787480884A2140254C+
	?debug	C 69737424746E3350434225404E6F646540302462+
	?debug	C 63747224716E335043428089C008000000
	?debug	C E24A11404576656E744030246263747224717563+
	?debug	C 80C24910404576656E7440302462647472247176+
	?debug	C 80C4480F404576656E7440307761697424717680+
	?debug	C C64811404576656E74403073696E67616C247176+
	?debug	C 80C800066D79496D706C1CC004000000
	?debug	C E24A144053656D6170686F726540302462637472+
	?debug	C 24716980D24D144053656D6170686F7265403024+
	?debug	C 6264747224717680D44C144053656D6170686F72+
	?debug	C 654030776169742471756980D64C154053656D61+
	?debug	C 70686F726540307369676E616C24716980D84813+
	?debug	C 4053656D6170686F7265403076616C2478717680+
	?debug	C DA400400000000066D79496D706C80DCC0080000+
	?debug	C 00
	?debug	C E20008726573657276656480E600066174747269+
	?debug	C 6202000777725F74696D650A000777725F646174+
	?debug	C 650A000473697A650600046E616D6580E7C02B00+
	?debug	C 0000
	?debug	C E2000B66665F726573657276656480E900096666+
	?debug	C 5F61747472696202000866665F6674696D650A00+
	?debug	C 0866665F66646174650A000866665F6673697A65+
	?debug	C 06000766665F6E616D6580EAC02B000000
	?debug	C E20004725F61780A0004725F62780A0004725F63+
	?debug	C 780A0004725F64780A0004725F62700A0004725F+
	?debug	C 73690A0004725F64690A0004725F64730A000472+
	?debug	C 5F65730A0007725F666C6167730AC014000000
	?debug	C E2000265730A000263730A000273730A00026473+
	?debug	C 0AC008000000
	?debug	C E200017880EE00016880EFC010000000
	?debug	C E2000261780A000262780A000263780A00026478+
	?debug	C 0A000273690A000264690A000563666C61670A00+
	?debug	C 05666C6167730AC010000000
	?debug	C E20002616C0800026168080002626C0800026268+
	?debug	C 080002636C0800026368080002646C0800026468+
	?debug	C 08C008000000
	?debug	C E200036461790800056D6F6E7468080004796561+
	?debug	C 720A00096461796F667765656B08C005000000
	?debug	C E2000764615F7965617204000664615F64617902+
	?debug	C 000664615F6D6F6E02C004000000
	?debug	C E20004686F75720800066D696E75746508000673+
	?debug	C 65636F6E64080007687365636F6E6408C0040000+
	?debug	C 00
	?debug	C E2000674695F6D696E08000774695F686F757208+
	?debug	C 000774695F68756E6408000674695F73656308C0+
	?debug	C 04000000
	?debug	C E2000764685F6E65787406000764685F61747472+
	?debug	C 04000864685F73747261740A000864685F696E74+
	?debug	C 65720A000764685F6E616D6580F5C012000000
	?debug	C E2000866695F73636C757302000866695F666174+
	?debug	C 696402000866695F6E636C75730A000866695F62+
	?debug	C 7973656304C006000000
	?debug	C E2000E746F74616C5F636C7573746572730A000E+
	?debug	C 617661696C5F636C7573746572730A0013736563+
	?debug	C 746F72735F7065725F636C75737465720A001062+
	?debug	C 797465735F7065725F736563746F720AC0080000+
	?debug	C 00
	?debug	C E2000864665F617661696C0A000864665F746F74+
	?debug	C 616C0A000764665F627365630A000864665F7363+
	?debug	C 6C75730AC008000000
	?debug	C E2000B64655F6578746572726F7204000864655F+
	?debug	C 636C61737302000964655F616374696F6E020008+
	?debug	C 64655F6C6F63757302C005000000
	?debug	C E20007636F5F64617465040007636F5F63757272+
	?debug	C 80FB0008636F5F746873657080FC0008636F5F64+
	?debug	C 6573657080FD0008636F5F647473657080FE0008+
	?debug	C 636F5F746D73657080FF000C636F5F6375727273+
	?debug	C 74796C65020009636F5F64696769747302000763+
	?debug	C 6F5F74696D65020007636F5F6361736506000863+
	?debug	C 6F5F646173657081000007636F5F66696C6C8101+
	?debug	C C022000000
	?debug	C E20009786663625F666C6167020009786663625F+
	?debug	C 7265737681030009786663625F61747472020008+
	?debug	C 786663625F6663628104C02C000000
	?debug	C E200096663625F64726976650200086663625F6E+
	?debug	C 616D65810500076663625F6578748106000A6663+
	?debug	C 625F637572626C6B04000B6663625F7265637369+
	?debug	C 7A6504000B6663625F66696C73697A6506000866+
	?debug	C 63625F646174650400086663625F726573768107+
	?debug	C 000A6663625F63757272656302000A6663625F72+
	?debug	C 616E646F6D06C025000000
	?debug	C E2600E4054696D6572403062726F6A61630A6023+
	?debug	C 4054696D657240307A6168746576616E615F7072+
	?debug	C 6F6D656E615F6B6F6E74656B7374610A60154054+
	?debug	C 696D65724030676C6F62616C4C6F636B436E7404+
	?debug	C 60174054696D65724030706F7A76616E5F646973+
	?debug	C 70617463680460124054696D657240306E656564+
	?debug	C 546F4B696C6C04480F4054696D65724030696E69+
	?debug	C 74247176810948124054696D6572403072657374+
	?debug	C 6F7265247176810BC001000000
	end
